; Function Attrs: inlinehint mustprogress nofree norecurse nosync nounwind willreturn memory(read, argmem: readwrite, inaccessiblemem: none) uwtable
define internal fastcc i32 @get_se_golomb(ptr noundef nonnull captures(none) %0) unnamed_addr #5 {
  %2 = getelementptr inbounds nuw i8, ptr %0, i64 16
  %3 = load i32, ptr %2, align 8, !tbaa !311
  %4 = getelementptr inbounds nuw i8, ptr %0, i64 24
  %5 = load i32, ptr %4, align 8, !tbaa !313
  %6 = load ptr, ptr %0, align 8, !tbaa !312
  %7 = lshr i32 %3, 3
  %8 = zext nneg i32 %7 to i64
  %9 = getelementptr inbounds nuw i8, ptr %6, i64 %8
  %10 = load i32, ptr %9, align 1, !tbaa !74
  %11 = tail call i32 @llvm.bswap.i32(i32 %10)
  %12 = and i32 %3, 7
  %13 = shl i32 %11, %12
  %14 = icmp ugt i32 %13, 134217727
  br i1 %14, label %15, label %25

15:                                               ; preds = %1
  %16 = lshr i32 %13, 23
  %17 = zext nneg i32 %16 to i64
  %18 = getelementptr inbounds nuw [512 x i8], ptr @ff_golomb_vlc_len, i64 0, i64 %17
  %19 = load i8, ptr %18, align 1, !tbaa !74
  %20 = zext i8 %19 to i32
  %21 = add i32 %3, %20
  %. = tail call i32 @llvm.umin.i32(i32 %5, i32 %21)
  store i32 %., ptr %2, align 8, !tbaa !311
  %22 = getelementptr inbounds nuw [512 x i8], ptr @ff_se_golomb_vlc_code, i64 0, i64 %17
  %23 = load i8, ptr %22, align 1, !tbaa !74
  %24 = sext i8 %23 to i32
  br label %50

25:                                               ; preds = %1
  %.not.i = icmp samesign ult i32 %13, 65536
  %26 = lshr i32 %13, 16
  %spec.select.i = select i1 %.not.i, i32 %13, i32 %26
  %spec.select12.i = select i1 %.not.i, i32 0, i32 16
  %.not11.i = icmp samesign ult i32 %spec.select.i, 256
  %27 = lshr i32 %spec.select.i, 8
  %28 = or disjoint i32 %spec.select12.i, 8
  %.110.i = select i1 %.not11.i, i32 %spec.select.i, i32 %27
  %.1.i = select i1 %.not11.i, i32 %spec.select12.i, i32 %28
  %29 = zext nneg i32 %.110.i to i64
  %30 = getelementptr inbounds nuw [256 x i8], ptr @ff_log2_tab, i64 0, i64 %29
  %31 = load i8, ptr %30, align 1, !tbaa !74
  %32 = zext i8 %31 to i32
  %33 = add nuw nsw i32 %.1.i, %32
  %reass.sub = add i32 %3, 31
  %34 = sub i32 %reass.sub, %33
  %.50 = tail call i32 @llvm.umin.i32(i32 %5, i32 %34)
  %35 = lshr i32 %.50, 3
  %36 = zext nneg i32 %35 to i64
  %37 = getelementptr inbounds nuw i8, ptr %6, i64 %36
  %38 = load i32, ptr %37, align 1, !tbaa !74
  %39 = tail call i32 @llvm.bswap.i32(i32 %38)
  %40 = and i32 %.50, 7
  %41 = shl i32 %39, %40
  %42 = lshr i32 %41, %33
  %reass.sub51 = sub i32 %.50, %33
  %43 = add i32 %reass.sub51, 32
  %44 = tail call i32 @llvm.umin.i32(i32 %5, i32 %43)
  store i32 %44, ptr %2, align 8, !tbaa !311
  %45 = and i32 %42, 1
  %46 = sub nsw i32 0, %45
  %47 = lshr i32 %42, 1
  %48 = xor i32 %47, %46
  %49 = add i32 %48, %45
  br label %50

50:                                               ; preds = %25, %15
  %.0 = phi i32 [ %24, %15 ], [ %49, %25 ]
  ret i32 %.0
}